; Function Attrs: mustprogress uwtable
define void @_ZNK5arrow7compute19FunctionOptionsType9SerializeERKNS0_15FunctionOptionsE(ptr dead_on_unwind noalias writable sret(%"class.arrow::Result") align 8 %0, ptr noundef nonnull align 8 dereferenceable(8) %1, ptr nonnull readnone align 8 captures(none) %2) unnamed_addr #1 align 2 personality ptr @__gxx_personality_v0 {
  %4 = alloca %"class.std::__cxx11::basic_string", align 8
  %5 = alloca %"class.arrow::Status", align 8
  %6 = alloca ptr, align 8
  call void @llvm.lifetime.start.p0(i64 8, ptr nonnull %5) #23
  call void @llvm.lifetime.start.p0(i64 8, ptr nonnull %6) #23
  %7 = load ptr, ptr %1, align 8, !tbaa !32
  %8 = getelementptr inbounds nuw i8, ptr %7, i64 16
  %9 = load ptr, ptr %8, align 8
  %10 = tail call noundef ptr %9(ptr noundef nonnull align 8 dereferenceable(8) %1)
  store ptr %10, ptr %6, align 8, !tbaa !34
  call void @llvm.lifetime.start.p0(i64 32, ptr nonnull %4) #23, !noalias !37
  call void @_ZN5arrow4util13StringBuilderIJRA15_KcPS2_EEENSt7__cxx1112basic_stringIcSt11char_traitsIcESaIcEEEDpOT_(ptr dead_on_unwind nonnull writable sret(%"class.std::__cxx11::basic_string") align 8 %4, ptr noundef nonnull align 1 dereferenceable(15) @.str, ptr noundef nonnull align 8 dereferenceable(8) %6), !noalias !37
  invoke void @_ZN5arrow6StatusC1ENS_10StatusCodeERKNSt7__cxx1112basic_stringIcSt11char_traitsIcESaIcEEE(ptr noundef nonnull align 8 dereferenceable(8) %5, i8 noundef signext 10, ptr noundef nonnull align 8 dereferenceable(32) %4)
          to label %11 unwind label %20

11:                                               ; preds = %3
  %12 = load ptr, ptr %4, align 8, !tbaa !42, !noalias !37
  %13 = getelementptr inbounds nuw i8, ptr %4, i64 16
  %14 = icmp eq ptr %12, %13
  br i1 %14, label %_ZNKSt7__cxx1112basic_stringIcSt11char_traitsIcESaIcEE11_M_is_localEv.exit.thread.i.i.i.i, label %_ZNKSt7__cxx1112basic_stringIcSt11char_traitsIcESaIcEE11_M_is_localEv.exit.i.i.i.i

_ZNKSt7__cxx1112basic_stringIcSt11char_traitsIcESaIcEE11_M_is_localEv.exit.thread.i.i.i.i: ; preds = %11
  %15 = getelementptr inbounds nuw i8, ptr %4, i64 8
  %16 = load i64, ptr %15, align 8, !tbaa !45, !noalias !37
  %17 = icmp ult i64 %16, 16
  call void @llvm.assume(i1 %17)
  br label %_ZN5arrow6Status14NotImplementedIJRA15_KcPS2_EEES0_DpOT_.exit

_ZNKSt7__cxx1112basic_stringIcSt11char_traitsIcESaIcEE11_M_is_localEv.exit.i.i.i.i: ; preds = %11
  %18 = load i64, ptr %13, align 8, !tbaa !46, !noalias !37
  %19 = add i64 %18, 1
  call void @_ZdlPvm(ptr noundef %12, i64 noundef %19) #24
  br label %_ZN5arrow6Status14NotImplementedIJRA15_KcPS2_EEES0_DpOT_.exit

20:                                               ; preds = %3
  %21 = landingpad { ptr, i32 }
          cleanup
  %22 = load ptr, ptr %4, align 8, !tbaa !42, !noalias !37
  %23 = getelementptr inbounds nuw i8, ptr %4, i64 16
  %24 = icmp eq ptr %22, %23
  br i1 %24, label %_ZNKSt7__cxx1112basic_stringIcSt11char_traitsIcESaIcEE11_M_is_localEv.exit.thread.i.i5.i.i, label %_ZNKSt7__cxx1112basic_stringIcSt11char_traitsIcESaIcEE11_M_is_localEv.exit.i.i4.i.i

_ZNKSt7__cxx1112basic_stringIcSt11char_traitsIcESaIcEE11_M_is_localEv.exit.thread.i.i5.i.i: ; preds = %20
  %25 = getelementptr inbounds nuw i8, ptr %4, i64 8
  %26 = load i64, ptr %25, align 8, !tbaa !45, !noalias !37
  %27 = icmp ult i64 %26, 16
  call void @llvm.assume(i1 %27)
  br label %_ZNSt7__cxx1112basic_stringIcSt11char_traitsIcESaIcEED2Ev.exit6.i.i

_ZNKSt7__cxx1112basic_stringIcSt11char_traitsIcESaIcEE11_M_is_localEv.exit.i.i4.i.i: ; preds = %20
  %28 = load i64, ptr %23, align 8, !tbaa !46, !noalias !37
  %29 = add i64 %28, 1
  call void @_ZdlPvm(ptr noundef %22, i64 noundef %29) #24
  br label %_ZNSt7__cxx1112basic_stringIcSt11char_traitsIcESaIcEED2Ev.exit6.i.i

_ZNSt7__cxx1112basic_stringIcSt11char_traitsIcESaIcEED2Ev.exit6.i.i: ; preds = %_ZNKSt7__cxx1112basic_stringIcSt11char_traitsIcESaIcEE11_M_is_localEv.exit.i.i4.i.i, %_ZNKSt7__cxx1112basic_stringIcSt11char_traitsIcESaIcEE11_M_is_localEv.exit.thread.i.i5.i.i
  call void @llvm.lifetime.end.p0(i64 32, ptr nonnull %4) #23, !noalias !37
  resume { ptr, i32 } %21

_ZN5arrow6Status14NotImplementedIJRA15_KcPS2_EEES0_DpOT_.exit: ; preds = %_ZNKSt7__cxx1112basic_stringIcSt11char_traitsIcESaIcEE11_M_is_localEv.exit.thread.i.i.i.i, %_ZNKSt7__cxx1112basic_stringIcSt11char_traitsIcESaIcEE11_M_is_localEv.exit.i.i.i.i
  call void @llvm.lifetime.end.p0(i64 32, ptr nonnull %4) #23, !noalias !37
  call void @_ZN5arrow6ResultISt10shared_ptrINS_6BufferEEEC2ERKNS_6StatusE(ptr noundef nonnull align 8 dereferenceable(24) %0, ptr noundef nonnull align 8 dereferenceable(8) %5) #23
  %30 = load ptr, ptr %5, align 8, !tbaa !47
  %.not.i = icmp eq ptr %30, null
  br i1 %.not.i, label %_ZN5arrow6StatusD2Ev.exit, label %31, !prof !50

31:                                               ; preds = %_ZN5arrow6Status14NotImplementedIJRA15_KcPS2_EEES0_DpOT_.exit
  %32 = getelementptr inbounds nuw i8, ptr %30, i64 1
  %33 = load i8, ptr %32, align 1, !tbaa !51, !range !60, !noundef !61
  %34 = trunc nuw i8 %33 to i1
  br i1 %34, label %_ZN5arrow6StatusD2Ev.exit, label %35

35:                                               ; preds = %31
  call void @_ZN5arrow6Status11DeleteStateEv(ptr noundef nonnull align 8 dereferenceable(8) %5) #23
  br label %_ZN5arrow6StatusD2Ev.exit

_ZN5arrow6StatusD2Ev.exit:                        ; preds = %_ZN5arrow6Status14NotImplementedIJRA15_KcPS2_EEES0_DpOT_.exit, %31, %35
  call void @llvm.lifetime.end.p0(i64 8, ptr nonnull %6) #23
  call void @llvm.lifetime.end.p0(i64 8, ptr nonnull %5) #23
  ret void
}